liblutok.so.3 liblutok #MINVER#
 _ZN5lutok12state_c_gate7c_stateEv@Base 0.4
 _ZN5lutok12state_c_gate7connectEP9lua_State@Base 0.4
 _ZN5lutok12state_c_gateC1ERNS_5stateE@Base 0.4
 _ZN5lutok12state_c_gateC2ERNS_5stateE@Base 0.4
 _ZN5lutok12state_c_gateD1Ev@Base 0.4
 _ZN5lutok12state_c_gateD2Ev@Base 0.4
 _ZN5lutok13create_moduleERNS_5stateERKSsRKSt3mapISsPFiS1_ESt4lessISsESaISt4pairIS2_S6_EEE@Base 0.4
 _ZN5lutok13stack_cleaner6forgetEv@Base 0.4
 _ZN5lutok13stack_cleanerC1ERNS_5stateE@Base 0.4
 _ZN5lutok13stack_cleanerC2ERNS_5stateE@Base 0.4
 _ZN5lutok13stack_cleanerD1Ev@Base 0.4
 _ZN5lutok13stack_cleanerD2Ev@Base 0.4
 _ZN5lutok14registry_indexE@Base 0.4
 _ZN5lutok20file_not_found_errorC1ERKSs@Base 0.4
 _ZN5lutok20file_not_found_errorC2ERKSs@Base 0.4
 _ZN5lutok20file_not_found_errorD0Ev@Base 0.4
 _ZN5lutok20file_not_found_errorD1Ev@Base 0.4
 _ZN5lutok20file_not_found_errorD2Ev@Base 0.4
 _ZN5lutok4evalERNS_5stateERKSsi@Base 0.4
 _ZN5lutok5debug8get_infoERNS_5stateERKSs@Base 0.4
 _ZN5lutok5debug9get_stackERNS_5stateEi@Base 0.4
 _ZN5lutok5debugC1Ev@Base 0.4
 _ZN5lutok5debugC2Ev@Base 0.4
 _ZN5lutok5debugD1Ev@Base 0.4
 _ZN5lutok5debugD2Ev@Base 0.4
 _ZN5lutok5errorC1ERKSs@Base 0.4
 _ZN5lutok5errorC2ERKSs@Base 0.4
 _ZN5lutok5errorD0Ev@Base 0.4
 _ZN5lutok5errorD1Ev@Base 0.4
 _ZN5lutok5errorD2Ev@Base 0.4
 _ZN5lutok5state10get_globalERKSs@Base 0.4
 _ZN5lutok5state10is_booleanEi@Base 0.4
 _ZN5lutok5state10open_tableEv@Base 0.4
 _ZN5lutok5state10push_valueEi@Base 0.4
 _ZN5lutok5state10set_globalERKSs@Base 0.4
 _ZN5lutok5state10to_booleanEi@Base 0.4
 _ZN5lutok5state10to_integerEi@Base 0.4
 _ZN5lutok5state11is_functionEi@Base 0.4
 _ZN5lutok5state11is_userdataEi@Base 0.4
 _ZN5lutok5state11load_stringERKSs@Base 0.4
 _ZN5lutok5state11open_stringEv@Base 0.4
 _ZN5lutok5state11push_stringERKSs@Base 0.4
 _ZN5lutok5state12push_booleanEb@Base 0.4
 _ZN5lutok5state12push_integerEi@Base 0.4
 _ZN5lutok5state13get_metafieldEiRKSs@Base 0.4
 _ZN5lutok5state13get_metatableEi@Base 0.4
 _ZN5lutok5state13set_metatableEi@Base 0.4
 _ZN5lutok5state13upvalue_indexEi@Base 0.4
 _ZN5lutok5state16get_global_tableEv@Base 0.4
 _ZN5lutok5state16push_cxx_closureEPFiRS0_Ei@Base 0.4
 _ZN5lutok5state17push_cxx_functionEPFiRS0_E@Base 0.4
 _ZN5lutok5state17to_userdata_voidpEi@Base 0.4
 _ZN5lutok5state18new_userdata_voidpEm@Base 0.4
 _ZN5lutok5state3popEi@Base 0.4
 _ZN5lutok5state4nextEi@Base 0.4
 _ZN5lutok5state5closeEv@Base 0.4
 _ZN5lutok5state5pcallEiii@Base 0.4
 _ZN5lutok5state6insertEi@Base 0.4
 _ZN5lutok5state6is_nilEi@Base 0.4
 _ZN5lutok5state7get_topEv@Base 0.4
 _ZN5lutok5state7raw_getEi@Base 0.4
 _ZN5lutok5state7raw_setEi@Base 0.4
 _ZN5lutok5state8is_tableEi@Base 0.4
 _ZN5lutok5state8open_allEv@Base 0.4
 _ZN5lutok5state8push_nilEv@Base 0.4
 _ZN5lutok5state9get_tableEi@Base 0.4
 _ZN5lutok5state9is_numberEi@Base 0.4
 _ZN5lutok5state9is_stringEi@Base 0.4
 _ZN5lutok5state9load_fileERKSs@Base 0.4
 _ZN5lutok5state9new_tableEv@Base 0.4
 _ZN5lutok5state9open_baseEv@Base 0.4
 _ZN5lutok5state9raw_stateEv@Base 0.4
 _ZN5lutok5state9set_tableEi@Base 0.4
 _ZN5lutok5state9to_stringEi@Base 0.4
 _ZN5lutok5stateC1EPv@Base 0.4
 _ZN5lutok5stateC1Ev@Base 0.4
 _ZN5lutok5stateC2EPv@Base 0.4
 _ZN5lutok5stateC2Ev@Base 0.4
 _ZN5lutok5stateD1Ev@Base 0.4
 _ZN5lutok5stateD2Ev@Base 0.4
 _ZN5lutok7do_fileERNS_5stateERKSsiii@Base 0.4
 _ZN5lutok9api_error10from_stackERNS_5stateERKSs@Base 0.4
 _ZN5lutok9api_errorC1ERKSsS2_@Base 0.4
 _ZN5lutok9api_errorC2ERKSsS2_@Base 0.4
 _ZN5lutok9api_errorD0Ev@Base 0.4
 _ZN5lutok9api_errorD1Ev@Base 0.4
 _ZN5lutok9api_errorD2Ev@Base 0.4
 _ZN5lutok9do_stringERNS_5stateERKSsiii@Base 0.4
 _ZNK5lutok20file_not_found_error8filenameEv@Base 0.4
 _ZNK5lutok5debug12current_lineEv@Base 0.4
 _ZNK5lutok5debug12line_definedEv@Base 0.4
 _ZNK5lutok5debug17last_line_definedEv@Base 0.4
 _ZNK5lutok5debug4nameEv@Base 0.4
 _ZNK5lutok5debug4whatEv@Base 0.4
 _ZNK5lutok5debug5eventEv@Base 0.4
 _ZNK5lutok5debug5n_upsEv@Base 0.4
 _ZNK5lutok5debug6sourceEv@Base 0.4
 _ZNK5lutok5debug9name_whatEv@Base 0.4
 _ZNK5lutok5debug9short_srcEv@Base 0.4
 _ZNK5lutok9api_error12api_functionEv@Base 0.4
 _ZNSt3tr116_Sp_counted_baseILN9__gnu_cxx12_Lock_policyE2EE10_M_destroyEv@Base 0.4
 _ZNSt3tr116_Sp_counted_baseILN9__gnu_cxx12_Lock_policyE2EE10_M_releaseEv@Base 0.4
 _ZNSt3tr116_Sp_counted_baseILN9__gnu_cxx12_Lock_policyE2EED0Ev@Base 0.4
 _ZNSt3tr116_Sp_counted_baseILN9__gnu_cxx12_Lock_policyE2EED1Ev@Base 0.4
 _ZNSt3tr116_Sp_counted_baseILN9__gnu_cxx12_Lock_policyE2EED2Ev@Base 0.4
 _ZNSt3tr121_Sp_counted_base_implIPN5lutok5debug4implENS_11_Sp_deleterIS3_EELN9__gnu_cxx12_Lock_policyE2EE10_M_disposeEv@Base 0.4
 _ZNSt3tr121_Sp_counted_base_implIPN5lutok5debug4implENS_11_Sp_deleterIS3_EELN9__gnu_cxx12_Lock_policyE2EE14_M_get_deleterERKSt9type_info@Base 0.4
 _ZNSt3tr121_Sp_counted_base_implIPN5lutok5debug4implENS_11_Sp_deleterIS3_EELN9__gnu_cxx12_Lock_policyE2EED0Ev@Base 0.4
 _ZNSt3tr121_Sp_counted_base_implIPN5lutok5debug4implENS_11_Sp_deleterIS3_EELN9__gnu_cxx12_Lock_policyE2EED1Ev@Base 0.4
 _ZNSt3tr121_Sp_counted_base_implIPN5lutok5debug4implENS_11_Sp_deleterIS3_EELN9__gnu_cxx12_Lock_policyE2EED2Ev@Base 0.4
 _ZNSt3tr121_Sp_counted_base_implIPN5lutok5state4implENS_11_Sp_deleterIS3_EELN9__gnu_cxx12_Lock_policyE2EE10_M_disposeEv@Base 0.4
 _ZNSt3tr121_Sp_counted_base_implIPN5lutok5state4implENS_11_Sp_deleterIS3_EELN9__gnu_cxx12_Lock_policyE2EE14_M_get_deleterERKSt9type_info@Base 0.4
 _ZNSt3tr121_Sp_counted_base_implIPN5lutok5state4implENS_11_Sp_deleterIS3_EELN9__gnu_cxx12_Lock_policyE2EED0Ev@Base 0.4
 _ZNSt3tr121_Sp_counted_base_implIPN5lutok5state4implENS_11_Sp_deleterIS3_EELN9__gnu_cxx12_Lock_policyE2EED1Ev@Base 0.4
 _ZNSt3tr121_Sp_counted_base_implIPN5lutok5state4implENS_11_Sp_deleterIS3_EELN9__gnu_cxx12_Lock_policyE2EED2Ev@Base 0.4
 _ZStplIcSt11char_traitsIcESaIcEESbIT_T0_T1_EPKS3_RKS6_@Base 0.4
 _ZStplIcSt11char_traitsIcESaIcEESbIT_T0_T1_ERKS6_PKS3_@Base 0.4
 _ZTIN5lutok20file_not_found_errorE@Base 0.4
 _ZTIN5lutok5errorE@Base 0.4
 _ZTIN5lutok9api_errorE@Base 0.4
 _ZTINSt3tr111_Mutex_baseILN9__gnu_cxx12_Lock_policyE2EEE@Base 0.4
 _ZTINSt3tr116_Sp_counted_baseILN9__gnu_cxx12_Lock_policyE2EEE@Base 0.4
 _ZTINSt3tr121_Sp_counted_base_implIPN5lutok5debug4implENS_11_Sp_deleterIS3_EELN9__gnu_cxx12_Lock_policyE2EEE@Base 0.4
 _ZTINSt3tr121_Sp_counted_base_implIPN5lutok5state4implENS_11_Sp_deleterIS3_EELN9__gnu_cxx12_Lock_policyE2EEE@Base 0.4
 _ZTSN5lutok20file_not_found_errorE@Base 0.4
 _ZTSN5lutok5errorE@Base 0.4
 _ZTSN5lutok9api_errorE@Base 0.4
 _ZTSNSt3tr111_Mutex_baseILN9__gnu_cxx12_Lock_policyE2EEE@Base 0.4
 _ZTSNSt3tr111_Sp_deleterIN5lutok5debug4implEEE@Base 0.4
 _ZTSNSt3tr111_Sp_deleterIN5lutok5state4implEEE@Base 0.4
 _ZTSNSt3tr116_Sp_counted_baseILN9__gnu_cxx12_Lock_policyE2EEE@Base 0.4
 _ZTSNSt3tr121_Sp_counted_base_implIPN5lutok5debug4implENS_11_Sp_deleterIS3_EELN9__gnu_cxx12_Lock_policyE2EEE@Base 0.4
 _ZTSNSt3tr121_Sp_counted_base_implIPN5lutok5state4implENS_11_Sp_deleterIS3_EELN9__gnu_cxx12_Lock_policyE2EEE@Base 0.4
 _ZTVN5lutok20file_not_found_errorE@Base 0.4
 _ZTVN5lutok5errorE@Base 0.4
 _ZTVN5lutok9api_errorE@Base 0.4
 _ZTVNSt3tr116_Sp_counted_baseILN9__gnu_cxx12_Lock_policyE2EEE@Base 0.4
 _ZTVNSt3tr121_Sp_counted_base_implIPN5lutok5debug4implENS_11_Sp_deleterIS3_EELN9__gnu_cxx12_Lock_policyE2EEE@Base 0.4
 _ZTVNSt3tr121_Sp_counted_base_implIPN5lutok5state4implENS_11_Sp_deleterIS3_EELN9__gnu_cxx12_Lock_policyE2EEE@Base 0.4
